; Function Attrs: nounwind uwtable
define dso_local i64 @pg_snapshot_send(ptr noundef readonly captures(none) %0) local_unnamed_addr #0 {
  %2 = alloca %struct.StringInfoData, align 8
  %3 = getelementptr inbounds nuw i8, ptr %0, i64 32
  %4 = load i64, ptr %3, align 8
  %5 = inttoptr i64 %4 to ptr
  %6 = tail call ptr @pg_detoast_datum(ptr noundef %5) #11
  call void @llvm.lifetime.start.p0(i64 24, ptr nonnull %2) #11
  call void @pq_begintypsend(ptr noundef nonnull %2) #11
  %7 = getelementptr inbounds nuw i8, ptr %6, i64 4
  %8 = load i32, ptr %7, align 4
  call void @enlargeStringInfo(ptr noundef nonnull %2, i32 noundef 4) #11
  call void @llvm.experimental.noalias.scope.decl(metadata !11)
  %9 = call i32 @llvm.bswap.i32(i32 %8)
  %10 = load ptr, ptr %2, align 8, !alias.scope !11
  %11 = getelementptr inbounds nuw i8, ptr %2, i64 8
  %12 = load i32, ptr %11, align 8, !alias.scope !11
  %13 = sext i32 %12 to i64
  %14 = getelementptr inbounds i8, ptr %10, i64 %13
  store i32 %9, ptr %14, align 1, !noalias !11
  %15 = add i32 %12, 4
  store i32 %15, ptr %11, align 8, !alias.scope !11
  %16 = getelementptr inbounds nuw i8, ptr %6, i64 8
  %17 = load i64, ptr %16, align 8
  call void @enlargeStringInfo(ptr noundef nonnull %2, i32 noundef 8) #11
  call void @llvm.experimental.noalias.scope.decl(metadata !14)
  %18 = call i64 @llvm.bswap.i64(i64 %17)
  %19 = load ptr, ptr %2, align 8, !alias.scope !14
  %20 = load i32, ptr %11, align 8, !alias.scope !14
  %21 = sext i32 %20 to i64
  %22 = getelementptr inbounds i8, ptr %19, i64 %21
  store i64 %18, ptr %22, align 1, !noalias !14
  %23 = add i32 %20, 8
  store i32 %23, ptr %11, align 8, !alias.scope !14
  %24 = getelementptr inbounds nuw i8, ptr %6, i64 16
  %25 = load i64, ptr %24, align 8
  call void @enlargeStringInfo(ptr noundef nonnull %2, i32 noundef 8) #11
  call void @llvm.experimental.noalias.scope.decl(metadata !17)
  %26 = call i64 @llvm.bswap.i64(i64 %25)
  %27 = load ptr, ptr %2, align 8, !alias.scope !17
  %28 = load i32, ptr %11, align 8, !alias.scope !17
  %29 = sext i32 %28 to i64
  %30 = getelementptr inbounds i8, ptr %27, i64 %29
  store i64 %26, ptr %30, align 1, !noalias !17
  %31 = add i32 %28, 8
  store i32 %31, ptr %11, align 8, !alias.scope !17
  %32 = load i32, ptr %7, align 4
  %.not = icmp eq i32 %32, 0
  br i1 %.not, label %._crit_edge, label %.lr.ph

.lr.ph:                                           ; preds = %1
  %33 = getelementptr inbounds nuw i8, ptr %6, i64 24
  br label %34

34:                                               ; preds = %.lr.ph, %34
  %indvars.iv = phi i64 [ 0, %.lr.ph ], [ %indvars.iv.next, %34 ]
  %35 = getelementptr inbounds nuw [0 x %struct.FullTransactionId], ptr %33, i64 0, i64 %indvars.iv
  %36 = load i64, ptr %35, align 8
  call void @enlargeStringInfo(ptr noundef nonnull %2, i32 noundef 8) #11
  call void @llvm.experimental.noalias.scope.decl(metadata !20)
  %37 = call i64 @llvm.bswap.i64(i64 %36)
  %38 = load ptr, ptr %2, align 8, !alias.scope !20
  %39 = load i32, ptr %11, align 8, !alias.scope !20
  %40 = sext i32 %39 to i64
  %41 = getelementptr inbounds i8, ptr %38, i64 %40
  store i64 %37, ptr %41, align 1, !noalias !20
  %42 = add i32 %39, 8
  store i32 %42, ptr %11, align 8, !alias.scope !20
  %indvars.iv.next = add nuw nsw i64 %indvars.iv, 1
  %43 = load i32, ptr %7, align 4
  %44 = zext i32 %43 to i64
  %45 = icmp samesign ult i64 %indvars.iv.next, %44
  br i1 %45, label %34, label %._crit_edge, !llvm.loop !23

._crit_edge:                                      ; preds = %34, %1
  %46 = call ptr @pq_endtypsend(ptr noundef nonnull %2) #11
  %47 = ptrtoint ptr %46 to i64
  call void @llvm.lifetime.end.p0(i64 24, ptr nonnull %2) #11
  ret i64 %47
}